; Function Attrs: mustprogress nofree norecurse nounwind willreturn uwtable
define void @_ZNK5osgeo4proj4util9LocalName5scopeEv(ptr dead_on_unwind noalias nocapture writable writeonly sret(%"class.std::shared_ptr.67") align 8 %0, ptr nocapture noundef nonnull readonly align 8 dereferenceable(32) %1) unnamed_addr #10 align 2 personality ptr @__gxx_personality_v0 {
  %3 = getelementptr inbounds i8, ptr %1, i64 24
  %4 = load ptr, ptr %3, align 8
  %5 = load ptr, ptr %4, align 8
  %.not = icmp eq ptr %5, null
  br i1 %.not, label %18, label %6

6:                                                ; preds = %2
  store ptr %5, ptr %0, align 8
  %7 = getelementptr inbounds i8, ptr %0, i64 8
  %8 = getelementptr inbounds i8, ptr %4, i64 8
  %9 = load ptr, ptr %8, align 8
  store ptr %9, ptr %7, align 8
  %.not.i.i.i = icmp eq ptr %9, null
  br i1 %.not.i.i.i, label %_ZNSt10shared_ptrIN5osgeo4proj4util9NameSpaceEEC2ERKS4_.exit, label %10

10:                                               ; preds = %6
  %11 = getelementptr inbounds i8, ptr %9, i64 8
  %12 = load i8, ptr @__libc_single_threaded, align 1
  %.not.i.i.i.i = icmp eq i8 %12, 0
  br i1 %.not.i.i.i.i, label %16, label %13

13:                                               ; preds = %10
  %14 = load i32, ptr %11, align 4
  %15 = add nsw i32 %14, 1
  store i32 %15, ptr %11, align 4
  br label %_ZNSt10shared_ptrIN5osgeo4proj4util9NameSpaceEEC2ERKS4_.exit

16:                                               ; preds = %10
  %17 = atomicrmw volatile add ptr %11, i32 1 acq_rel, align 4
  br label %_ZNSt10shared_ptrIN5osgeo4proj4util9NameSpaceEEC2ERKS4_.exit

18:                                               ; preds = %2
  %19 = load ptr, ptr @_ZN5osgeo4proj4util9NameSpace6GLOBALE, align 8
  store ptr %19, ptr %0, align 8
  %20 = getelementptr inbounds i8, ptr %0, i64 8
  %21 = load ptr, ptr getelementptr inbounds (%"class.dropbox::oxygen::nn.66", ptr @_ZN5osgeo4proj4util9NameSpace6GLOBALE, i64 0, i32 0, i32 0, i32 1, i32 0), align 8
  store ptr %21, ptr %20, align 8
  %.not.i.i.i1 = icmp eq ptr %21, null
  br i1 %.not.i.i.i1, label %_ZNSt10shared_ptrIN5osgeo4proj4util9NameSpaceEEC2ERKS4_.exit, label %22

22:                                               ; preds = %18
  %23 = getelementptr inbounds i8, ptr %21, i64 8
  %24 = load i8, ptr @__libc_single_threaded, align 1
  %.not.i.i.i.i2 = icmp eq i8 %24, 0
  br i1 %.not.i.i.i.i2, label %28, label %25

25:                                               ; preds = %22
  %26 = load i32, ptr %23, align 4
  %27 = add nsw i32 %26, 1
  store i32 %27, ptr %23, align 4
  br label %_ZNSt10shared_ptrIN5osgeo4proj4util9NameSpaceEEC2ERKS4_.exit

28:                                               ; preds = %22
  %29 = atomicrmw volatile add ptr %23, i32 1 acq_rel, align 4
  br label %_ZNSt10shared_ptrIN5osgeo4proj4util9NameSpaceEEC2ERKS4_.exit

_ZNSt10shared_ptrIN5osgeo4proj4util9NameSpaceEEC2ERKS4_.exit: ; preds = %28, %25, %18, %16, %13, %6
  ret void
}